0000  ed6312ef  LD   ($ef12), HL
0004  ed6b34cd  LD   HL, ($cd34)
0008  dd04      INC  B
000a  dd05      DEC  B
000c  dd0655    LD   B, $55
000f  dd0c      INC  C
0011  dd0d      DEC  C
0013  dd0eaa    LD   C, $aa
0016  dd14      INC  D
0018  dd15      DEC  D
001a  dd1655    LD   D, $55
001d  dd1c      INC  E
001f  dd1d      DEC  E
0021  dd1eaa    LD   E, $aa
0024  dd3c      INC  A
0026  dd3d      DEC  A
0028  dd3e55    LD   A, $55
002b  dd40      LD   B, B
002d  dd41      LD   B, C
002f  dd42      LD   B, D
0031  dd43      LD   B, E
0033  dd47      LD   B, A
0035  dd48      LD   C, B
0037  dd49      LD   C, C
0039  dd4a      LD   C, D
003b  dd4b      LD   C, E
003d  dd4f      LD   C, A
003f  dd50      LD   D, B
0041  dd51      LD   D, C
0043  dd52      LD   D, D
0045  dd53      LD   D, E
0047  dd57      LD   D, A
0049  dd58      LD   E, B
004b  dd59      LD   E, C
004d  dd5a      LD   E, D
004f  dd5b      LD   E, E
0051  dd5f      LD   E, A
0053  dd78      LD   A, B
0055  dd79      LD   A, C
0057  dd7a      LD   A, D
0059  dd7b      LD   A, E
005b  dd7f      LD   A, A
005d  dd80      ADD  A, B
005f  dd81      ADD  A, C
0061  dd82      ADD  A, D
0063  dd83      ADD  A, E
0065  dd87      ADD  A, A
0067  dd88      ADC  A, B
0069  dd89      ADC  A, C
006b  dd8a      ADC  A, D
006d  dd8b      ADC  A, E
006f  dd8f      ADC  A, A
0071  dd90      SUB  A, B
0073  dd91      SUB  A, C
0075  dd92      SUB  A, D
0077  dd93      SUB  A, E
0079  dd97      SUB  A, A
007b  dd98      SBC  A, B
007d  dd99      SBC  A, C
007f  dd9a      SBC  A, D
0081  dd9b      SBC  A, E
0083  dd9f      SBC  A, A
0085  dda0      AND  A, B
0087  dda1      AND  A, C
0089  dda2      AND  A, D
008b  dda3      AND  A, E
008d  dda7      AND  A, A
008f  dda8      XOR  A, B
0091  dda9      XOR  A, C
0093  ddaa      XOR  A, D
0095  ddab      XOR  A, E
0097  ddaf      XOR  A, A
0099  ddb0      OR   A, B
009b  ddb1      OR   A, C
009d  ddb2      OR   A, D
009f  ddb3      OR   A, E
00a1  ddb7      OR   A, A
00a3  ddb8      CP   A, B
00a5  ddb9      CP   A, C
00a7  ddba      CP   A, D
00a9  ddbb      CP   A, E
00ab  ddbf      CP   A, A
00ad  ddcb3440  BIT  0, (IX+$34)
00b1  ddcb3441  BIT  0, (IX+$34)
00b5  ddcb3442  BIT  0, (IX+$34)
00b9  ddcb3443  BIT  0, (IX+$34)
00bd  ddcb3444  BIT  0, (IX+$34)
00c1  ddcb3445  BIT  0, (IX+$34)
00c5  ddcb3447  BIT  0, (IX+$34)
00c9  ddcb3448  BIT  1, (IX+$34)
00cd  ddcb3449  BIT  1, (IX+$34)
00d1  ddcb344a  BIT  1, (IX+$34)
00d5  ddcb344b  BIT  1, (IX+$34)
00d9  ddcb344c  BIT  1, (IX+$34)
00dd  ddcb344d  BIT  1, (IX+$34)
00e1  ddcb344f  BIT  1, (IX+$34)
00e5  ddcb3450  BIT  2, (IX+$34)
00e9  ddcb3451  BIT  2, (IX+$34)
00ed  ddcb3452  BIT  2, (IX+$34)
00f1  ddcb3453  BIT  2, (IX+$34)
00f5  ddcb3454  BIT  2, (IX+$34)
00f9  ddcb3455  BIT  2, (IX+$34)
00fd  ddcb3457  BIT  2, (IX+$34)
0101  ddcb3458  BIT  3, (IX+$34)
0105  ddcb3459  BIT  3, (IX+$34)
0109  ddcb345a  BIT  3, (IX+$34)
010d  ddcb345b  BIT  3, (IX+$34)
0111  ddcb345c  BIT  3, (IX+$34)
0115  ddcb345d  BIT  3, (IX+$34)
0119  ddcb345f  BIT  3, (IX+$34)
011d  ddcb3460  BIT  4, (IX+$34)
0121  ddcb3461  BIT  4, (IX+$34)
0125  ddcb3462  BIT  4, (IX+$34)
0129  ddcb3463  BIT  4, (IX+$34)
012d  ddcb3464  BIT  4, (IX+$34)
0131  ddcb3465  BIT  4, (IX+$34)
0135  ddcb3467  BIT  4, (IX+$34)
0139  ddcb3468  BIT  5, (IX+$34)
013d  ddcb3469  BIT  5, (IX+$34)
0141  ddcb346a  BIT  5, (IX+$34)
0145  ddcb346b  BIT  5, (IX+$34)
0149  ddcb346c  BIT  5, (IX+$34)
014d  ddcb346d  BIT  5, (IX+$34)
0151  ddcb346f  BIT  5, (IX+$34)
0155  ddcb3470  BIT  6, (IX+$34)
0159  ddcb3471  BIT  6, (IX+$34)
015d  ddcb3472  BIT  6, (IX+$34)
0161  ddcb3473  BIT  6, (IX+$34)
0165  ddcb3474  BIT  6, (IX+$34)
0169  ddcb3475  BIT  6, (IX+$34)
016d  ddcb3477  BIT  6, (IX+$34)
0171  ddcb3478  BIT  7, (IX+$34)
0175  ddcb3479  BIT  7, (IX+$34)
0179  ddcb347a  BIT  7, (IX+$34)
017d  ddcb347b  BIT  7, (IX+$34)
0181  ddcb347c  BIT  7, (IX+$34)
0185  ddcb347d  BIT  7, (IX+$34)
0189  ddcb347f  BIT  7, (IX+$34)
018d  fd04      INC  B
018f  fd05      DEC  B
0191  fd06aa    LD   B, $aa
0194  fd0c      INC  C
0196  fd0d      DEC  C
0198  fd0e55    LD   C, $55
019b  fd14      INC  D
019d  fd15      DEC  D
019f  fd16aa    LD   D, $aa
01a2  fd1c      INC  E
01a4  fd1d      DEC  E
01a6  fd1e55    LD   E, $55
01a9  fd3c      INC  A
01ab  fd3d      DEC  A
01ad  fd3eaa    LD   A, $aa
01b0  fd40      LD   B, B
01b2  fd41      LD   B, C
01b4  fd42      LD   B, D
01b6  fd43      LD   B, E
01b8  fd47      LD   B, A
01ba  fd48      LD   C, B
01bc  fd49      LD   C, C
01be  fd4a      LD   C, D
01c0  fd4b      LD   C, E
01c2  fd4f      LD   C, A
01c4  fd50      LD   D, B
01c6  fd51      LD   D, C
01c8  fd52      LD   D, D
01ca  fd53      LD   D, E
01cc  fd57      LD   D, A
01ce  fd58      LD   E, B
01d0  fd59      LD   E, C
01d2  fd5a      LD   E, D
01d4  fd5b      LD   E, E
01d6  fd5f      LD   E, A
01d8  fd78      LD   A, B
01da  fd79      LD   A, C
01dc  fd7a      LD   A, D
01de  fd7b      LD   A, E
01e0  fd7f      LD   A, A
01e2  fd80      ADD  A, B
01e4  fd81      ADD  A, C
01e6  fd82      ADD  A, D
01e8  fd83      ADD  A, E
01ea  fd87      ADD  A, A
01ec  fd88      ADC  A, B
01ee  fd89      ADC  A, C
01f0  fd8a      ADC  A, D
01f2  fd8b      ADC  A, E
01f4  fd8f      ADC  A, A
01f6  fd90      SUB  A, B
01f8  fd91      SUB  A, C
01fa  fd92      SUB  A, D
01fc  fd93      SUB  A, E
01fe  fd97      SUB  A, A
0200  fd98      SBC  A, B
0202  fd99      SBC  A, C
0204  fd9a      SBC  A, D
0206  fd9b      SBC  A, E
0208  fd9f      SBC  A, A
020a  fda0      AND  A, B
020c  fda1      AND  A, C
020e  fda2      AND  A, D
0210  fda3      AND  A, E
0212  fda7      AND  A, A
0214  fda8      XOR  A, B
0216  fda9      XOR  A, C
0218  fdaa      XOR  A, D
021a  fdab      XOR  A, E
021c  fdaf      XOR  A, A
021e  fdb0      OR   A, B
0220  fdb1      OR   A, C
0222  fdb2      OR   A, D
0224  fdb3      OR   A, E
0226  fdb7      OR   A, A
0228  fdb8      CP   A, B
022a  fdb9      CP   A, C
022c  fdba      CP   A, D
022e  fdbb      CP   A, E
0230  fdbf      CP   A, A
0232  fdcb3440  BIT  0, (IY+$34)
0236  fdcb3441  BIT  0, (IY+$34)
023a  fdcb3442  BIT  0, (IY+$34)
023e  fdcb3443  BIT  0, (IY+$34)
0242  fdcb3444  BIT  0, (IY+$34)
0246  fdcb3445  BIT  0, (IY+$34)
024a  fdcb3447  BIT  0, (IY+$34)
024e  fdcb3448  BIT  1, (IY+$34)
0252  fdcb3449  BIT  1, (IY+$34)
0256  fdcb344a  BIT  1, (IY+$34)
025a  fdcb344b  BIT  1, (IY+$34)
025e  fdcb344c  BIT  1, (IY+$34)
0262  fdcb344d  BIT  1, (IY+$34)
0266  fdcb344f  BIT  1, (IY+$34)
026a  fdcb3450  BIT  2, (IY+$34)
026e  fdcb3451  BIT  2, (IY+$34)
0272  fdcb3452  BIT  2, (IY+$34)
0276  fdcb3453  BIT  2, (IY+$34)
027a  fdcb3454  BIT  2, (IY+$34)
027e  fdcb3455  BIT  2, (IY+$34)
0282  fdcb3457  BIT  2, (IY+$34)
0286  fdcb3458  BIT  3, (IY+$34)
028a  fdcb3459  BIT  3, (IY+$34)
028e  fdcb345a  BIT  3, (IY+$34)
0292  fdcb345b  BIT  3, (IY+$34)
0296  fdcb345c  BIT  3, (IY+$34)
029a  fdcb345d  BIT  3, (IY+$34)
029e  fdcb345f  BIT  3, (IY+$34)
02a2  fdcb3460  BIT  4, (IY+$34)
02a6  fdcb3461  BIT  4, (IY+$34)
02aa  fdcb3462  BIT  4, (IY+$34)
02ae  fdcb3463  BIT  4, (IY+$34)
02b2  fdcb3464  BIT  4, (IY+$34)
02b6  fdcb3465  BIT  4, (IY+$34)
02ba  fdcb3467  BIT  4, (IY+$34)
02be  fdcb3468  BIT  5, (IY+$34)
02c2  fdcb3469  BIT  5, (IY+$34)
02c6  fdcb346a  BIT  5, (IY+$34)
02ca  fdcb346b  BIT  5, (IY+$34)
02ce  fdcb346c  BIT  5, (IY+$34)
02d2  fdcb346d  BIT  5, (IY+$34)
02d6  fdcb346f  BIT  5, (IY+$34)
02da  fdcb3470  BIT  6, (IY+$34)
02de  fdcb3471  BIT  6, (IY+$34)
02e2  fdcb3472  BIT  6, (IY+$34)
02e6  fdcb3473  BIT  6, (IY+$34)
02ea  fdcb3474  BIT  6, (IY+$34)
02ee  fdcb3475  BIT  6, (IY+$34)
02f2  fdcb3477  BIT  6, (IY+$34)
02f6  fdcb3478  BIT  7, (IY+$34)
02fa  fdcb3479  BIT  7, (IY+$34)
02fe  fdcb347a  BIT  7, (IY+$34)
0302  fdcb347b  BIT  7, (IY+$34)
0306  fdcb347c  BIT  7, (IY+$34)
030a  fdcb347d  BIT  7, (IY+$34)
030e  fdcb347f  BIT  7, (IY+$34)
